; Function Attrs: mustprogress uwtable
define internal void @_ZN4LuauL8fnVisitRIRKNS_26TypePackRehydrationVisitorEPNS_11AstTypePackEKNS_28TypeFunctionInstanceTypePackEEEvRT_RT0_PNSt11conditionalIXsr3stdE10is_const_vIT1_EEKvvE4typeE(ptr noundef nonnull readonly align 8 captures(none) dereferenceable(24) %0, ptr noundef nonnull writeonly align 8 captures(none) dereferenceable(8) initializes((0, 8)) %1, ptr noundef readonly captures(none) %2) #2 {
  %4 = alloca %"struct.Luau::Location", align 4
  %5 = load ptr, ptr %0, align 8, !tbaa !25
  call void @llvm.lifetime.start.p0(i64 16, ptr nonnull %4) #21
  call void @llvm.memset.p0.i64(ptr noundef nonnull align 4 dereferenceable(16) %4, i8 0, i64 16, i1 false)
  %6 = load ptr, ptr %2, align 8, !tbaa !117
  %7 = load ptr, ptr %6, align 8, !tbaa !120
  %8 = tail call noundef ptr @_ZN4Luau9Allocator8allocateEm(ptr noundef nonnull align 8 dereferenceable(16) %5, i64 noundef 40)
  call void @_ZN4Luau18AstTypePackGenericC1ERKNS_8LocationENS_7AstNameE(ptr noundef nonnull align 8 dereferenceable(40) %8, ptr noundef nonnull align 4 dereferenceable(16) %4, ptr %7)
  call void @llvm.lifetime.end.p0(i64 16, ptr nonnull %4) #21
  store ptr %8, ptr %1, align 8, !tbaa !33
  ret void
}